ARM GAS  C:\Users\Nithish\AppData\Local\Temp\ccjLjZLx.s 			page 1


   1              		.syntax unified
   2              		.cpu cortex-m0
   3              		.fpu softvfp
   4              		.eabi_attribute 20, 1
   5              		.eabi_attribute 21, 1
   6              		.eabi_attribute 23, 3
   7              		.eabi_attribute 24, 1
   8              		.eabi_attribute 25, 1
   9              		.eabi_attribute 26, 1
  10              		.eabi_attribute 30, 1
  11              		.eabi_attribute 34, 0
  12              		.eabi_attribute 18, 4
  13              		.thumb
  14              		.syntax unified
  15              		.file	"main.c"
  16              		.text
  17              	.Ltext0:
  18              		.cfi_sections	.debug_frame
  19              		.section	.text.Stack_Handler,"ax",%progbits
  20              		.align	2
  21              		.global	Stack_Handler
  22              		.code	16
  23              		.thumb_func
  24              		.type	Stack_Handler, %function
  25              	Stack_Handler:
  26              	.LFB36:
  27              		.file 1 "main.c"
   1:main.c        **** /* ========================================
   2:main.c        ****  *
   3:main.c        ****  * Copyright YOUR COMPANY, THE YEAR
   4:main.c        ****  * All Rights Reserved
   5:main.c        ****  * UNPUBLISHED, LICENSED SOFTWARE.
   6:main.c        ****  *
   7:main.c        ****  * CONFIDENTIAL AND PROPRIETARY INFORMATION
   8:main.c        ****  * WHICH IS THE PROPERTY OF your company.
   9:main.c        ****  *
  10:main.c        ****  * ========================================
  11:main.c        **** */
  12:main.c        **** #include "project.h"
  13:main.c        **** #include "stdio.h"
  14:main.c        **** 
  15:main.c        **** CYBLE_CONN_HANDLE_T cyBle_connHandle; // Declare a connection handle
  16:main.c        **** 
  17:main.c        **** int sensor_data_flag = 0;  // declare a global variable which will be used for notifications and in
  18:main.c        **** 
  19:main.c        **** void Stack_Handler(uint32 eventCode, void* eventParam)
  20:main.c        **** {
  28              		.loc 1 20 0
  29              		.cfi_startproc
  30              		@ args = 0, pretend = 0, frame = 304
  31              		@ frame_needed = 0, uses_anonymous_args = 0
  32              	.LVL0:
  33 0000 10B5     		push	{r4, lr}
  34              		.cfi_def_cfa_offset 8
  35              		.cfi_offset 4, -8
  36              		.cfi_offset 14, -4
  37 0002 CCB0     		sub	sp, sp, #304
ARM GAS  C:\Users\Nithish\AppData\Local\Temp\ccjLjZLx.s 			page 2


  38              		.cfi_def_cfa_offset 312
  39 0004 0C00     		movs	r4, r1
  21:main.c        ****     // Pointer to a structure holding parameters for a GATT Server write request
  22:main.c        ****     CYBLE_GATTS_WRITE_REQ_PARAM_T *writeReqParam; 
  23:main.c        ****     
  24:main.c        ****     switch(eventCode)
  40              		.loc 1 24 0
  41 0006 2828     		cmp	r0, #40
  42 0008 03D0     		beq	.L3
  43 000a 4E28     		cmp	r0, #78
  44 000c 05D0     		beq	.L4
  45 000e 0128     		cmp	r0, #1
  46 0010 44D1     		bne	.L1
  47              	.L3:
  25:main.c        ****     {
  26:main.c        ****         // starting advertising once the stack is turned ON
  27:main.c        ****         case CYBLE_EVT_STACK_ON:
  28:main.c        ****         case CYBLE_EVT_GAP_DEVICE_DISCONNECTED:
  29:main.c        ****             CyBle_GappStartAdvertisement(CYBLE_ADVERTISING_FAST);
  48              		.loc 1 29 0
  49 0012 0020     		movs	r0, #0
  50              	.LVL1:
  51 0014 FFF7FEFF 		bl	CyBle_GappStartAdvertisement
  52              	.LVL2:
  30:main.c        ****             break;
  53              		.loc 1 30 0
  54 0018 40E0     		b	.L1
  55              	.LVL3:
  56              	.L4:
  31:main.c        ****         case CYBLE_EVT_GATTS_WRITE_CMD_REQ:
  32:main.c        ****             // Casting the eventParam to a pointer of type CYBLE_GATTS_WRITE_REQ_PARAM_T
  33:main.c        ****             writeReqParam = (CYBLE_GATTS_WRITE_REQ_PARAM_T *)eventParam;
  34:main.c        ****             
  35:main.c        ****             // if the attribute handle equals LED_CONTROL characterisic, enter this condition
  36:main.c        ****             if(writeReqParam->handleValPair.attrHandle == CYBLE_LED_CONTROL_CHAR_HANDLE)
  57              		.loc 1 36 0
  58 001a 8B89     		ldrh	r3, [r1, #12]
  59 001c 122B     		cmp	r3, #18
  60 001e 14D1     		bne	.L5
  37:main.c        ****             {
  38:main.c        ****                 if(writeReqParam->handleValPair.value.val[0] == 'a')
  61              		.loc 1 38 0
  62 0020 4B68     		ldr	r3, [r1, #4]
  63 0022 1B78     		ldrb	r3, [r3]
  64 0024 612B     		cmp	r3, #97
  65 0026 03D1     		bne	.L6
  39:main.c        ****                 {
  40:main.c        ****                     PWM_WriteCompare(0); // LED is off
  66              		.loc 1 40 0
  67 0028 0020     		movs	r0, #0
  68              	.LVL4:
  69 002a FFF7FEFF 		bl	PWM_WriteCompare
  70              	.LVL5:
  71 002e 0CE0     		b	.L5
  72              	.LVL6:
  73              	.L6:
  41:main.c        ****                 }
ARM GAS  C:\Users\Nithish\AppData\Local\Temp\ccjLjZLx.s 			page 3


  42:main.c        ****                 else if(writeReqParam->handleValPair.value.val[0] == 'b')
  74              		.loc 1 42 0
  75 0030 622B     		cmp	r3, #98
  76 0032 04D1     		bne	.L7
  43:main.c        ****                 {
  44:main.c        ****                     PWM_WriteCompare(500); // LED turns on and off every 500ms
  77              		.loc 1 44 0
  78 0034 FA20     		movs	r0, #250
  79              	.LVL7:
  80 0036 4000     		lsls	r0, r0, #1
  81 0038 FFF7FEFF 		bl	PWM_WriteCompare
  82              	.LVL8:
  83 003c 05E0     		b	.L5
  84              	.LVL9:
  85              	.L7:
  45:main.c        ****                 }
  46:main.c        ****                 else if(writeReqParam->handleValPair.value.val[0] == 'c')
  86              		.loc 1 46 0
  87 003e 632B     		cmp	r3, #99
  88 0040 03D1     		bne	.L5
  47:main.c        ****                 {
  48:main.c        ****                     PWM_WriteCompare(1000); // LED turns on
  89              		.loc 1 48 0
  90 0042 FA20     		movs	r0, #250
  91              	.LVL10:
  92 0044 8000     		lsls	r0, r0, #2
  93 0046 FFF7FEFF 		bl	PWM_WriteCompare
  94              	.LVL11:
  95              	.L5:
  49:main.c        ****                 }
  50:main.c        ****                 // Write the attribute value. Required only when a response to the write request is
  51:main.c        ****                 // In our case, we are writing without response
  52:main.c        ****                 //CyBle_GattsWriteAttributeValue(&writeReqParam->handleValPair, 0, &cyBle_connHandl
  53:main.c        ****             }
  54:main.c        ****             // if the attribute handle equals LED_VALUEREADFLAG characterisic, enter this condition
  55:main.c        ****             if(writeReqParam->handleValPair.attrHandle == CYBLE_LED_VALUEREADFLAG_CHAR_HANDLE)
  96              		.loc 1 55 0
  97 004a A389     		ldrh	r3, [r4, #12]
  98 004c 182B     		cmp	r3, #24
  99 004e 0AD1     		bne	.L8
  56:main.c        ****             {
  57:main.c        ****                 if(writeReqParam->handleValPair.value.val[0] == 'e')
 100              		.loc 1 57 0
 101 0050 6268     		ldr	r2, [r4, #4]
 102 0052 1278     		ldrb	r2, [r2]
 103 0054 652A     		cmp	r2, #101
 104 0056 03D1     		bne	.L9
  58:main.c        ****                 {
  59:main.c        ****                     sensor_data_flag = 'e';  // update flag to send notifications or indications
 105              		.loc 1 59 0
 106 0058 6521     		movs	r1, #101
 107 005a 114A     		ldr	r2, .L12
 108 005c 1160     		str	r1, [r2]
 109 005e 02E0     		b	.L8
 110              	.L9:
  60:main.c        ****                 }
  61:main.c        ****                 else
ARM GAS  C:\Users\Nithish\AppData\Local\Temp\ccjLjZLx.s 			page 4


  62:main.c        ****                 {
  63:main.c        ****                     sensor_data_flag = 0;  // update flag to unsubscribe to the sensor data
 111              		.loc 1 63 0
 112 0060 0021     		movs	r1, #0
 113 0062 0F4A     		ldr	r2, .L12
 114 0064 1160     		str	r1, [r2]
 115              	.L8:
  64:main.c        ****                 }
  65:main.c        ****                 // Write the attribute value. Required only when a response to the write request is
  66:main.c        ****                 // In our case, we are writing without any response
  67:main.c        ****                 //CyBle_GattsWriteAttributeValue(&writeReqParam->handleValPair, 0, &cyBle_connHandl
  68:main.c        ****             }
  69:main.c        ****             // if the attribute handle equals LED_FORMDATA characterisic, enter this condition
  70:main.c        ****             if(writeReqParam->handleValPair.attrHandle == CYBLE_LED_FORMDATA_CHAR_HANDLE)
 116              		.loc 1 70 0
 117 0066 1B2B     		cmp	r3, #27
 118 0068 18D1     		bne	.L1
 119              	.LBB2:
  71:main.c        ****             {
  72:main.c        ****                 // Prints the data received from the text box in the application.
  73:main.c        ****                 char form_data[300]={0};
 120              		.loc 1 73 0
 121 006a 9622     		movs	r2, #150
 122 006c 5200     		lsls	r2, r2, #1
 123 006e 0021     		movs	r1, #0
 124 0070 01A8     		add	r0, sp, #4
 125 0072 FFF7FEFF 		bl	memset
 126              	.LVL12:
 127              	.LBB3:
  74:main.c        ****                 for(int i=0; i<writeReqParam->handleValPair.value.len; i++)
 128              		.loc 1 74 0
 129 0076 0023     		movs	r3, #0
 130 0078 04E0     		b	.L10
 131              	.LVL13:
 132              	.L11:
  75:main.c        ****                 {
  76:main.c        ****                     form_data[i] = writeReqParam->handleValPair.value.val[i];
 133              		.loc 1 76 0 discriminator 3
 134 007a 6268     		ldr	r2, [r4, #4]
 135 007c D15C     		ldrb	r1, [r2, r3]
 136 007e 01AA     		add	r2, sp, #4
 137 0080 D154     		strb	r1, [r2, r3]
  74:main.c        ****                 for(int i=0; i<writeReqParam->handleValPair.value.len; i++)
 138              		.loc 1 74 0 discriminator 3
 139 0082 0133     		adds	r3, r3, #1
 140              	.LVL14:
 141              	.L10:
  74:main.c        ****                 for(int i=0; i<writeReqParam->handleValPair.value.len; i++)
 142              		.loc 1 74 0 is_stmt 0 discriminator 1
 143 0084 2289     		ldrh	r2, [r4, #8]
 144 0086 9342     		cmp	r3, r2
 145 0088 F7DB     		blt	.L11
 146              	.LBE3:
  77:main.c        ****                 }
  78:main.c        ****                 sprintf(form_data, "%s", form_data);
  79:main.c        ****                 UART_1_PutString(form_data);
 147              		.loc 1 79 0 is_stmt 1
ARM GAS  C:\Users\Nithish\AppData\Local\Temp\ccjLjZLx.s 			page 5


 148 008a 01A8     		add	r0, sp, #4
 149 008c FFF7FEFF 		bl	UART_1_PutString
 150              	.LVL15:
  80:main.c        ****                 UART_1_PutChar('\n');
 151              		.loc 1 80 0
 152 0090 0A20     		movs	r0, #10
 153 0092 FFF7FEFF 		bl	UART_1_PutChar
 154              	.LVL16:
  81:main.c        ****                 UART_1_PutChar('\r');
 155              		.loc 1 81 0
 156 0096 0D20     		movs	r0, #13
 157 0098 FFF7FEFF 		bl	UART_1_PutChar
 158              	.LVL17:
 159              	.L1:
 160              	.LBE2:
  82:main.c        ****             }
  83:main.c        ****             //Send a response to the write request.
  84:main.c        ****             // In our case, we are writing without response
  85:main.c        ****             //CyBle_GattsWriteRsp(cyBle_connHandle);
  86:main.c        ****             break; 
  87:main.c        ****         default:
  88:main.c        ****             break;
  89:main.c        ****     }
  90:main.c        **** }
 161              		.loc 1 90 0
 162 009c 4CB0     		add	sp, sp, #304
 163              		@ sp needed
 164              	.LVL18:
 165 009e 10BD     		pop	{r4, pc}
 166              	.L13:
 167              		.align	2
 168              	.L12:
 169 00a0 00000000 		.word	.LANCHOR0
 170              		.cfi_endproc
 171              	.LFE36:
 172              		.size	Stack_Handler, .-Stack_Handler
 173              		.section	.text.main,"ax",%progbits
 174              		.align	2
 175              		.global	main
 176              		.code	16
 177              		.thumb_func
 178              		.type	main, %function
 179              	main:
 180              	.LFB37:
  91:main.c        **** 
  92:main.c        **** 
  93:main.c        **** int main(void)
  94:main.c        **** {
 181              		.loc 1 94 0
 182              		.cfi_startproc
 183              		@ args = 0, pretend = 0, frame = 16
 184              		@ frame_needed = 0, uses_anonymous_args = 0
 185 0000 10B5     		push	{r4, lr}
 186              		.cfi_def_cfa_offset 8
 187              		.cfi_offset 4, -8
 188              		.cfi_offset 14, -4
 189 0002 84B0     		sub	sp, sp, #16
ARM GAS  C:\Users\Nithish\AppData\Local\Temp\ccjLjZLx.s 			page 6


 190              		.cfi_def_cfa_offset 24
  95:main.c        ****     CyGlobalIntEnable; // Enable global interrupts.
 191              		.loc 1 95 0
 192              		.syntax divided
 193              	@ 95 "main.c" 1
 194 0004 62B6     		CPSIE   i
 195              	@ 0 "" 2
  96:main.c        ****     
  97:main.c        ****     UART_1_Start();
 196              		.loc 1 97 0
 197              		.thumb
 198              		.syntax unified
 199 0006 FFF7FEFF 		bl	UART_1_Start
 200              	.LVL19:
  98:main.c        ****     
  99:main.c        ****     ADC_1_Start();
 201              		.loc 1 99 0
 202 000a FFF7FEFF 		bl	ADC_1_Start
 203              	.LVL20:
 100:main.c        ****     
 101:main.c        ****     ADC_1_StartConvert();
 204              		.loc 1 101 0
 205 000e FFF7FEFF 		bl	ADC_1_StartConvert
 206              	.LVL21:
 102:main.c        **** 
 103:main.c        ****     PWM_Start();
 207              		.loc 1 103 0
 208 0012 FFF7FEFF 		bl	PWM_Start
 209              	.LVL22:
 104:main.c        ****     
 105:main.c        ****     CyBle_Start(Stack_Handler);
 210              		.loc 1 105 0
 211 0016 1348     		ldr	r0, .L17
 212 0018 FFF7FEFF 		bl	CyBle_Start
 213              	.LVL23:
 214              	.L15:
 106:main.c        ****     
 107:main.c        ****     // declare and initialize variables for sensor data
 108:main.c        ****     uint8 SensorValue;
 109:main.c        ****     uint8 PreviousValue = -100;
 110:main.c        ****     
 111:main.c        ****     
 112:main.c        ****     for(;;)
 113:main.c        ****     {
 114:main.c        ****         CyBle_ProcessEvents();  // process BLE events in each iteration
 215              		.loc 1 114 0
 216 001c FFF7FEFF 		bl	CyBle_ProcessEvents
 217              	.LVL24:
 115:main.c        ****         
 116:main.c        ****         ADC_1_IsEndConversion(ADC_1_WAIT_FOR_RESULT);
 218              		.loc 1 116 0
 219 0020 0220     		movs	r0, #2
 220 0022 FFF7FEFF 		bl	ADC_1_IsEndConversion
 221              	.LVL25:
 117:main.c        ****               
 118:main.c        ****         // can be replaced with a sensor. Right now a potentiometer is being used
 119:main.c        ****         if(sensor_data_flag=='e')
ARM GAS  C:\Users\Nithish\AppData\Local\Temp\ccjLjZLx.s 			page 7


 222              		.loc 1 119 0
 223 0026 104B     		ldr	r3, .L17+4
 224 0028 1B68     		ldr	r3, [r3]
 225 002a 652B     		cmp	r3, #101
 226 002c F6D1     		bne	.L15
 227              	.LBB4:
 120:main.c        ****         {
 121:main.c        ****             SensorValue = ADC_1_GetResult16(0);
 228              		.loc 1 121 0
 229 002e 0020     		movs	r0, #0
 230 0030 FFF7FEFF 		bl	ADC_1_GetResult16
 231              	.LVL26:
 232 0034 0F23     		movs	r3, #15
 233 0036 6B44     		add	r3, r3, sp
 234 0038 1870     		strb	r0, [r3]
 122:main.c        ****             
 123:main.c        ****             // Uncomment for sending notifications
 124:main.c        ****             /*CYBLE_GATTS_HANDLE_VALUE_NTF_T readResponse;
 125:main.c        ****             readResponse.attrHandle = CYBLE_LED_VALUEREAD_CHAR_HANDLE;
 126:main.c        ****             readResponse.value.len = 1;
 127:main.c        ****             readResponse.value.val = &SensorValue;  // Set the desired value here*/
 128:main.c        ****             
 129:main.c        ****             // Set up the indicationHandle with the appropriate attribute handle and value
 130:main.c        ****             CYBLE_GATTS_HANDLE_VALUE_IND_T indicationHandle;
 131:main.c        ****             indicationHandle.attrHandle = CYBLE_LED_VALUEREAD_CHAR_HANDLE;
 235              		.loc 1 131 0
 236 003a 1422     		movs	r2, #20
 237 003c 6946     		mov	r1, sp
 238 003e 0A81     		strh	r2, [r1, #8]
 132:main.c        ****             indicationHandle.value.val = &SensorValue; // Your data
 239              		.loc 1 132 0
 240 0040 0093     		str	r3, [sp]
 133:main.c        ****             indicationHandle.value.len = 1; // Length of your data
 241              		.loc 1 133 0
 242 0042 0123     		movs	r3, #1
 243 0044 8B80     		strh	r3, [r1, #4]
 134:main.c        ****             
 135:main.c        ****             //CyBle_GattsWriteAttributeValue(&readResponse, 0, &cyBle_connHandle, 0);  // Write the
 136:main.c        ****             CyBle_GattsWriteAttributeValue(&indicationHandle, 0, &cyBle_connHandle, 0);  // Write t
 244              		.loc 1 136 0
 245 0046 094C     		ldr	r4, .L17+8
 246 0048 0023     		movs	r3, #0
 247 004a 2200     		movs	r2, r4
 248 004c 0021     		movs	r1, #0
 249 004e 6846     		mov	r0, sp
 250 0050 FFF7FEFF 		bl	CyBle_GattsWriteAttributeValue
 251              	.LVL27:
 137:main.c        **** 
 138:main.c        ****                                  
 139:main.c        ****             if(1){
 140:main.c        ****                 // uncomment for sending notifications
 141:main.c        ****                 //CyBle_GattsNotification(cyBle_connHandle, &readResponse); // Send a notification
 142:main.c        ****                 CyBle_GattsIndication(cyBle_connHandle, &indicationHandle); // Send an indication
 252              		.loc 1 142 0
 253 0054 2378     		ldrb	r3, [r4]
 254 0056 6078     		ldrb	r0, [r4, #1]
 255 0058 0002     		lsls	r0, r0, #8
ARM GAS  C:\Users\Nithish\AppData\Local\Temp\ccjLjZLx.s 			page 8


 256 005a 1843     		orrs	r0, r3
 257 005c 6946     		mov	r1, sp
 258 005e FFF7FEFF 		bl	CyBle_GattsIndication
 259              	.LVL28:
 260 0062 DBE7     		b	.L15
 261              	.L18:
 262              		.align	2
 263              	.L17:
 264 0064 00000000 		.word	Stack_Handler
 265 0068 00000000 		.word	.LANCHOR0
 266 006c 00000000 		.word	cyBle_connHandle
 267              	.LBE4:
 268              		.cfi_endproc
 269              	.LFE37:
 270              		.size	main, .-main
 271              		.global	sensor_data_flag
 272              		.comm	cyBle_connHandle,2,4
 273              		.bss
 274              		.align	2
 275              		.set	.LANCHOR0,. + 0
 276              		.type	sensor_data_flag, %object
 277              		.size	sensor_data_flag, 4
 278              	sensor_data_flag:
 279 0000 00000000 		.space	4
 280              		.text
 281              	.Letext0:
 282              		.file 2 "Generated_Source\\PSoC4/cytypes.h"
 283              		.file 3 "Generated_Source\\PSoC4/BLE_1_StackGatt.h"
 284              		.file 4 "Generated_Source\\PSoC4/BLE_1_StackGattServer.h"
 285              		.file 5 "Generated_Source\\PSoC4/UART_1.h"
 286              		.file 6 "Generated_Source\\PSoC4/BLE_1.h"
 287              		.file 7 "Generated_Source\\PSoC4/PWM.h"
 288              		.file 8 "Generated_Source\\PSoC4/ADC_1.h"
 289              		.file 9 "Generated_Source\\PSoC4/BLE_1_StackGattDb.h"
 290              		.file 10 "Generated_Source\\PSoC4/BLE_1_Stack.h"